; Function Attrs: mustprogress nofree norecurse nosync nounwind willreturn memory(write, argmem: readwrite, inaccessiblemem: none) uwtable
define dso_local void @_ZN4Luau15BytecodeBuilder27setDebugFunctionLineDefinedEi(ptr noundef nonnull readonly align 8 captures(none) dereferenceable(840) %0, i32 noundef %1) local_unnamed_addr #16 align 2 {
  %3 = getelementptr inbounds nuw i8, ptr %0, i64 24
  %4 = load i32, ptr %3, align 8, !tbaa !22
  %5 = zext i32 %4 to i64
  %6 = load ptr, ptr %0, align 8, !tbaa !140
  %7 = getelementptr inbounds nuw %"struct.Luau::BytecodeBuilder::Function", ptr %6, i64 %5, i32 6
  store i32 %1, ptr %7, align 8, !tbaa !230
  ret void
}